target datalayout = "e-m:e-p270:32:32-p271:32:32-p272:64:64-i64:64-i128:128-f80:128-n8:16:32:64-S128"
target triple = "x86_64-pc-linux-gnu"

%"class.std::__cxx11::basic_string" = type { %"struct.std::__cxx11::basic_string<char>::_Alloc_hider", i64, %union.anon }
%"struct.std::__cxx11::basic_string<char>::_Alloc_hider" = type { ptr }
%union.anon = type { i64, [8 x i8] }
%"class.std::vector.3" = type { %"struct.std::_Vector_base.4" }
%"struct.std::_Vector_base.4" = type { %"struct.std::_Vector_base<double, std::allocator<double>>::_Vector_impl" }
%"struct.std::_Vector_base<double, std::allocator<double>>::_Vector_impl" = type { %"struct.std::_Vector_base<double, std::allocator<double>>::_Vector_impl_data" }
%"struct.std::_Vector_base<double, std::allocator<double>>::_Vector_impl_data" = type { ptr, ptr, ptr }
%"class.std::vector.13" = type { %"struct.std::_Vector_base.14" }
%"struct.std::_Vector_base.14" = type { %"struct.std::_Vector_base<int, std::allocator<int>>::_Vector_impl" }
%"struct.std::_Vector_base<int, std::allocator<int>>::_Vector_impl" = type { %"struct.std::_Vector_base<int, std::allocator<int>>::_Vector_impl_data" }
%"struct.std::_Vector_base<int, std::allocator<int>>::_Vector_impl_data" = type { ptr, ptr, ptr }
%"class.std::vector.49" = type { %"struct.std::_Vector_base.50" }
%"struct.std::_Vector_base.50" = type { %"struct.std::_Vector_base<colvar *, std::allocator<colvar *>>::_Vector_impl" }
%"struct.std::_Vector_base<colvar *, std::allocator<colvar *>>::_Vector_impl" = type { %"struct.std::_Vector_base<colvar *, std::allocator<colvar *>>::_Vector_impl_data" }
%"struct.std::_Vector_base<colvar *, std::allocator<colvar *>>::_Vector_impl_data" = type { ptr, ptr, ptr }
%"class.std::vector.54" = type { %"struct.std::_Vector_base.55" }
%"struct.std::_Vector_base.55" = type { %"struct.std::_Vector_base<colvarvalue, std::allocator<colvarvalue>>::_Vector_impl" }
%"struct.std::_Vector_base<colvarvalue, std::allocator<colvarvalue>>::_Vector_impl" = type { %"struct.std::_Vector_base<colvarvalue, std::allocator<colvarvalue>>::_Vector_impl_data" }
%"struct.std::_Vector_base<colvarvalue, std::allocator<colvarvalue>>::_Vector_impl_data" = type { ptr, ptr, ptr }
%class.colvarparse = type { %class.colvarparams, %"class.std::__cxx11::basic_string", %"class.std::__cxx11::basic_string", %"class.std::__cxx11::list", %"class.std::map.29", %"class.std::__cxx11::list.34", %"class.std::__cxx11::list.34", %"class.std::__cxx11::basic_string" }
%class.colvarparams = type { ptr, %"class.std::map", %"class.std::map.21" }
%"class.std::map" = type { %"class.std::_Rb_tree" }
%"class.std::_Rb_tree" = type { %"struct.std::_Rb_tree<std::__cxx11::basic_string<char>, std::pair<const std::__cxx11::basic_string<char>, const void *>, std::_Select1st<std::pair<const std::__cxx11::basic_string<char>, const void *>>, std::less<std::__cxx11::basic_string<char>>>::_Rb_tree_impl" }
%"struct.std::_Rb_tree<std::__cxx11::basic_string<char>, std::pair<const std::__cxx11::basic_string<char>, const void *>, std::_Select1st<std::pair<const std::__cxx11::basic_string<char>, const void *>>, std::less<std::__cxx11::basic_string<char>>>::_Rb_tree_impl" = type { %"struct.std::_Rb_tree_key_compare", %"struct.std::_Rb_tree_header" }
%"struct.std::_Rb_tree_key_compare" = type { %"struct.std::less" }
%"struct.std::less" = type { i8 }
%"struct.std::_Rb_tree_header" = type { %"struct.std::_Rb_tree_node_base", i64 }
%"struct.std::_Rb_tree_node_base" = type { i32, ptr, ptr, ptr }
%"class.std::map.21" = type { %"class.std::_Rb_tree.22" }
%"class.std::_Rb_tree.22" = type { %"struct.std::_Rb_tree<std::__cxx11::basic_string<char>, std::pair<const std::__cxx11::basic_string<char>, const colvarvalue *>, std::_Select1st<std::pair<const std::__cxx11::basic_string<char>, const colvarvalue *>>, std::less<std::__cxx11::basic_string<char>>>::_Rb_tree_impl" }
%"struct.std::_Rb_tree<std::__cxx11::basic_string<char>, std::pair<const std::__cxx11::basic_string<char>, const colvarvalue *>, std::_Select1st<std::pair<const std::__cxx11::basic_string<char>, const colvarvalue *>>, std::less<std::__cxx11::basic_string<char>>>::_Rb_tree_impl" = type { %"struct.std::_Rb_tree_key_compare", %"struct.std::_Rb_tree_header" }
%"class.std::__cxx11::list" = type { %"class.std::__cxx11::_List_base" }
%"class.std::__cxx11::_List_base" = type { %"struct.std::__cxx11::_List_base<std::__cxx11::basic_string<char>, std::allocator<std::__cxx11::basic_string<char>>>::_List_impl" }
%"struct.std::__cxx11::_List_base<std::__cxx11::basic_string<char>, std::allocator<std::__cxx11::basic_string<char>>>::_List_impl" = type { %"struct.std::__detail::_List_node_header" }
%"struct.std::__detail::_List_node_header" = type { %"struct.std::__detail::_List_node_base", i64 }
%"struct.std::__detail::_List_node_base" = type { ptr, ptr }
%"class.std::map.29" = type { %"class.std::_Rb_tree.30" }
%"class.std::_Rb_tree.30" = type { %"struct.std::_Rb_tree<std::__cxx11::basic_string<char>, std::pair<const std::__cxx11::basic_string<char>, colvarparse::key_set_mode>, std::_Select1st<std::pair<const std::__cxx11::basic_string<char>, colvarparse::key_set_mode>>, std::less<std::__cxx11::basic_string<char>>>::_Rb_tree_impl" }
%"struct.std::_Rb_tree<std::__cxx11::basic_string<char>, std::pair<const std::__cxx11::basic_string<char>, colvarparse::key_set_mode>, std::_Select1st<std::pair<const std::__cxx11::basic_string<char>, colvarparse::key_set_mode>>, std::less<std::__cxx11::basic_string<char>>>::_Rb_tree_impl" = type { %"struct.std::_Rb_tree_key_compare", %"struct.std::_Rb_tree_header" }
%"class.std::__cxx11::list.34" = type { %"class.std::__cxx11::_List_base.35" }
%"class.std::__cxx11::_List_base.35" = type { %"struct.std::__cxx11::_List_base<unsigned long, std::allocator<unsigned long>>::_List_impl" }
%"struct.std::__cxx11::_List_base<unsigned long, std::allocator<unsigned long>>::_List_impl" = type { %"struct.std::__detail::_List_node_header" }
%class.colvardeps = type { ptr, %"class.std::__cxx11::basic_string", i32, %"class.std::vector.39", %"class.std::vector.44", %"class.std::vector.44" }
%"class.std::vector.39" = type { %"struct.std::_Vector_base.40" }
%"struct.std::_Vector_base.40" = type { %"struct.std::_Vector_base<colvardeps::feature_state, std::allocator<colvardeps::feature_state>>::_Vector_impl" }
%"struct.std::_Vector_base<colvardeps::feature_state, std::allocator<colvardeps::feature_state>>::_Vector_impl" = type { %"struct.std::_Vector_base<colvardeps::feature_state, std::allocator<colvardeps::feature_state>>::_Vector_impl_data" }
%"struct.std::_Vector_base<colvardeps::feature_state, std::allocator<colvardeps::feature_state>>::_Vector_impl_data" = type { ptr, ptr, ptr }
%"class.std::vector.44" = type { %"struct.std::_Vector_base.45" }
%"struct.std::_Vector_base.45" = type { %"struct.std::_Vector_base<colvardeps *, std::allocator<colvardeps *>>::_Vector_impl" }
%"struct.std::_Vector_base<colvardeps *, std::allocator<colvardeps *>>::_Vector_impl" = type { %"struct.std::_Vector_base<colvardeps *, std::allocator<colvardeps *>>::_Vector_impl_data" }
%"struct.std::_Vector_base<colvardeps *, std::allocator<colvardeps *>>::_Vector_impl_data" = type { ptr, ptr, ptr }
%class.colvarbias_restraint_centers = type { %class.colvarbias_restraint.base, %"class.std::vector.54", %class.colvarbias.base, %class.colvarparse, %class.colvardeps, %class.colvarbias_ti.base }
%class.colvarbias_restraint.base = type { ptr }
%class.colvarbias.base = type { ptr, %"class.std::__cxx11::basic_string", %"class.std::__cxx11::basic_string", %"class.std::__cxx11::basic_string", i32, i64, %"class.std::__cxx11::basic_string", %"class.std::vector.49", %"class.std::vector.54", %"class.std::vector.54", %"class.std::vector.54", double, i8, i8, i64, i8, ptr, %"class.std::vector.13" }
%class.colvarbias_ti.base = type { ptr, %"class.std::vector.54", ptr, ptr, %"class.std::vector.13" }
%class.colvarbias_restraint_moving = type { ptr, i8, i8, i8, i32, i32, %"class.std::vector.3", i64, i64, double, %class.colvarparse, %class.colvardeps }
%"struct.colvardeps::feature_state" = type { i8, i8, i32, %"class.std::vector.13" }

@.str.10 = private unnamed_addr constant [8 x i8] c"centers\00", align 1
@.str.46 = private unnamed_addr constant [16 x i8] c"accumulatedWork\00", align 1

; Function Attrs: mustprogress nounwind uwtable
define linkonce_odr noundef nonnull align 8 dereferenceable(32) ptr @_ZNKSt6vectorIN10colvardeps13feature_stateESaIS1_EEixEm(ptr noundef nonnull align 8 dereferenceable(24) %0, i64 noundef %1) #1 comdat align 2 {
  %3 = alloca ptr, align 8
  %4 = alloca i64, align 8
  store ptr %0, ptr %3, align 8
  store i64 %1, ptr %4, align 8
  %5 = load ptr, ptr %3, align 8
  %6 = getelementptr inbounds %"struct.std::_Vector_base.40", ptr %5, i32 0, i32 0
  %7 = getelementptr inbounds %"struct.std::_Vector_base<colvardeps::feature_state, std::allocator<colvardeps::feature_state>>::_Vector_impl_data", ptr %6, i32 0, i32 0
  %8 = load ptr, ptr %7, align 8
  %9 = load i64, ptr %4, align 8
  %10 = getelementptr inbounds %"struct.colvardeps::feature_state", ptr %8, i64 %9
  ret ptr %10
}

; Function Attrs: mustprogress nounwind uwtable
define linkonce_odr noundef zeroext i1 @_ZNK10colvardeps10is_enabledEi(ptr noundef nonnull align 8 dereferenceable(120) %0, i32 noundef %1) #1 comdat align 2 {
  %3 = alloca ptr, align 8
  %4 = alloca i32, align 4
  store ptr %0, ptr %3, align 8
  store i32 %1, ptr %4, align 4
  %5 = load ptr, ptr %3, align 8
  %6 = getelementptr inbounds %class.colvardeps, ptr %5, i32 0, i32 3
  %7 = load i32, ptr %4, align 4
  %8 = sext i32 %7 to i64
  %9 = call noundef nonnull align 8 dereferenceable(32) ptr @_ZNKSt6vectorIN10colvardeps13feature_stateESaIS1_EEixEm(ptr noundef nonnull align 8 dereferenceable(24) %6, i64 noundef %8) #6
  %10 = getelementptr inbounds %"struct.colvardeps::feature_state", ptr %9, i32 0, i32 1
  %11 = load i8, ptr %10, align 1
  %12 = trunc i8 %11 to i1
  ret i1 %12
}

; Function Attrs: mustprogress nounwind uwtable
define linkonce_odr noundef i32 @_ZorRKN11colvarparse10Parse_ModeES2_(ptr noundef nonnull align 4 dereferenceable(4) %0, ptr noundef nonnull align 4 dereferenceable(4) %1) #1 comdat {
  %3 = alloca ptr, align 8
  %4 = alloca ptr, align 8
  store ptr %0, ptr %3, align 8
  store ptr %1, ptr %4, align 8
  %5 = load ptr, ptr %3, align 8
  %6 = load i32, ptr %5, align 4
  %7 = load ptr, ptr %4, align 8
  %8 = load i32, ptr %7, align 4
  %9 = or i32 %6, %8
  ret i32 %9
}

; Function Attrs: mustprogress uwtable
define noundef i32 @_ZN20colvarbias_restraint16set_state_paramsERKNSt7__cxx1112basic_stringIcSt11char_traitsIcESaIcEEE(ptr noundef nonnull align 8 dereferenceable(8) %0, ptr noundef nonnull align 8 dereferenceable(32) %1) unnamed_addr #4 align 2 {
  %3 = alloca ptr, align 8
  %4 = alloca ptr, align 8
  store ptr %0, ptr %3, align 8
  store ptr %1, ptr %4, align 8
  %5 = load ptr, ptr %3, align 8
  %6 = load ptr, ptr %5, align 8
  %7 = getelementptr i8, ptr %6, i64 -24
  %8 = load i64, ptr %7, align 8
  %9 = getelementptr inbounds i8, ptr %5, i64 %8
  %10 = load ptr, ptr %4, align 8
  %11 = call noundef i32 @_ZN10colvarbias16set_state_paramsERKNSt7__cxx1112basic_stringIcSt11char_traitsIcESaIcEEE(ptr noundef nonnull align 8 dereferenceable(312) %9, ptr noundef nonnull align 8 dereferenceable(32) %10)
  ret i32 %11
}

; Function Attrs: mustprogress uwtable
define noundef i32 @_ZN35colvarbias_restraint_centers_moving16set_state_paramsERKNSt7__cxx1112basic_stringIcSt11char_traitsIcESaIcEEE(ptr noundef nonnull align 8 dereferenceable(81) %0, ptr noundef nonnull align 8 dereferenceable(32) %1) unnamed_addr #4 align 2 {
  %3 = alloca ptr, align 8
  %4 = alloca ptr, align 8
  %5 = alloca i32, align 4
  %6 = alloca i32, align 4
  %7 = alloca i32, align 4
  %8 = alloca i32, align 4
  store ptr %0, ptr %3, align 8
  store ptr %1, ptr %4, align 8
  %9 = load ptr, ptr %3, align 8
  %10 = load ptr, ptr %9, align 8
  %11 = getelementptr i8, ptr %10, i64 -160
  %12 = load i64, ptr %11, align 8
  %13 = getelementptr inbounds i8, ptr %9, i64 %12
  %14 = load ptr, ptr %4, align 8
  %15 = call noundef i32 @_ZN20colvarbias_restraint16set_state_paramsERKNSt7__cxx1112basic_stringIcSt11char_traitsIcESaIcEEE(ptr noundef nonnull align 8 dereferenceable(8) %13, ptr noundef nonnull align 8 dereferenceable(32) %14)
  %16 = load ptr, ptr %9, align 8
  %17 = getelementptr i8, ptr %16, i64 -168
  %18 = load i64, ptr %17, align 8
  %19 = getelementptr inbounds i8, ptr %9, i64 %18
  %20 = getelementptr inbounds %class.colvarbias_restraint_moving, ptr %19, i32 0, i32 1
  %21 = load i8, ptr %20, align 8
  %22 = trunc i8 %21 to i1
  br i1 %22, label %23, label %41

23:                                               ; preds = %2
  %24 = load ptr, ptr %9, align 8
  %25 = getelementptr i8, ptr %24, i64 -32
  %26 = load i64, ptr %25, align 8
  %27 = getelementptr inbounds i8, ptr %9, i64 %26
  %28 = load ptr, ptr %4, align 8
  %29 = load ptr, ptr %9, align 8
  %30 = getelementptr i8, ptr %29, i64 -152
  %31 = load i64, ptr %30, align 8
  %32 = getelementptr inbounds i8, ptr %9, i64 %31
  %33 = getelementptr inbounds %class.colvarbias_restraint_centers, ptr %32, i32 0, i32 1
  %34 = load ptr, ptr %9, align 8
  %35 = getelementptr i8, ptr %34, i64 -152
  %36 = load i64, ptr %35, align 8
  %37 = getelementptr inbounds i8, ptr %9, i64 %36
  %38 = getelementptr inbounds %class.colvarbias_restraint_centers, ptr %37, i32 0, i32 1
  store i32 262144, ptr %5, align 4
  store i32 65536, ptr %6, align 4
  %39 = call noundef i32 @_ZorRKN11colvarparse10Parse_ModeES2_(ptr noundef nonnull align 4 dereferenceable(4) %5, ptr noundef nonnull align 4 dereferenceable(4) %6)
  %40 = call noundef zeroext i1 @_ZN11colvarparse10get_keyvalERKNSt7__cxx1112basic_stringIcSt11char_traitsIcESaIcEEEPKcRSt6vectorI11colvarvalueSaISB_EERKSD_NS_10Parse_ModeE(ptr noundef nonnull align 8 dereferenceable(320) %27, ptr noundef nonnull align 8 dereferenceable(32) %28, ptr noundef @.str.10, ptr noundef nonnull align 8 dereferenceable(24) %33, ptr noundef nonnull align 8 dereferenceable(24) %38, i32 noundef %39)
  br label %41

41:                                               ; preds = %23, %2
  %42 = load ptr, ptr %9, align 8
  %43 = getelementptr i8, ptr %42, i64 -40
  %44 = load i64, ptr %43, align 8
  %45 = getelementptr inbounds i8, ptr %9, i64 %44
  %46 = call noundef zeroext i1 @_ZNK10colvardeps10is_enabledEi(ptr noundef nonnull align 8 dereferenceable(120) %45, i32 noundef 6)
  br i1 %46, label %47, label %65

47:                                               ; preds = %41
  %48 = load ptr, ptr %9, align 8
  %49 = getelementptr i8, ptr %48, i64 -32
  %50 = load i64, ptr %49, align 8
  %51 = getelementptr inbounds i8, ptr %9, i64 %50
  %52 = load ptr, ptr %4, align 8
  %53 = load ptr, ptr %9, align 8
  %54 = getelementptr i8, ptr %53, i64 -168
  %55 = load i64, ptr %54, align 8
  %56 = getelementptr inbounds i8, ptr %9, i64 %55
  %57 = getelementptr inbounds %class.colvarbias_restraint_moving, ptr %56, i32 0, i32 9
  %58 = load ptr, ptr %9, align 8
  %59 = getelementptr i8, ptr %58, i64 -168
  %60 = load i64, ptr %59, align 8
  %61 = getelementptr inbounds i8, ptr %9, i64 %60
  %62 = getelementptr inbounds %class.colvarbias_restraint_moving, ptr %61, i32 0, i32 9
  store i32 262144, ptr %7, align 4
  store i32 65536, ptr %8, align 4
  %63 = call noundef i32 @_ZorRKN11colvarparse10Parse_ModeES2_(ptr noundef nonnull align 4 dereferenceable(4) %7, ptr noundef nonnull align 4 dereferenceable(4) %8)
  %64 = call noundef zeroext i1 @_ZN11colvarparse10get_keyvalERKNSt7__cxx1112basic_stringIcSt11char_traitsIcESaIcEEEPKcRdRKdNS_10Parse_ModeE(ptr noundef nonnull align 8 dereferenceable(320) %51, ptr noundef nonnull align 8 dereferenceable(32) %52, ptr noundef @.str.46, ptr noundef nonnull align 8 dereferenceable(8) %57, ptr noundef nonnull align 8 dereferenceable(8) %62, i32 noundef %63)
  br label %65

65:                                               ; preds = %47, %41
  ret i32 0
}

; Function Attrs: uwtable
define noundef i32 @_ZTv0_n72_N35colvarbias_restraint_centers_moving16set_state_paramsERKNSt7__cxx1112basic_stringIcSt11char_traitsIcESaIcEEE(ptr noundef %0, ptr noundef nonnull align 8 dereferenceable(32) %1) unnamed_addr #3 align 2 {
  %3 = alloca ptr, align 8
  %4 = alloca ptr, align 8
  store ptr %0, ptr %3, align 8
  store ptr %1, ptr %4, align 8
  %5 = load ptr, ptr %3, align 8
  %6 = load ptr, ptr %5, align 8
  %7 = getelementptr inbounds i8, ptr %6, i64 -72
  %8 = load i64, ptr %7, align 8
  %9 = getelementptr inbounds i8, ptr %5, i64 %8
  %10 = load ptr, ptr %4, align 8
  %11 = tail call noundef i32 @_ZN35colvarbias_restraint_centers_moving16set_state_paramsERKNSt7__cxx1112basic_stringIcSt11char_traitsIcESaIcEEE(ptr noundef nonnull align 8 dereferenceable(81) %9, ptr noundef nonnull align 8 dereferenceable(32) %10)
  ret i32 %11
}